target datalayout = "e-m:e-p270:32:32-p271:32:32-p272:64:64-i64:64-i128:128-f80:128-n8:16:32:64-S128"
target triple = "x86_64-pc-linux-gnu"

; Function Attrs: mustprogress null_pointer_is_valid sspstrong uwtable
define void @_ZN19WiresharkMainWindow9exportPDUEv(ptr noundef align 8 dereferenceable_or_null(560) %0) #0 align 2 personality ptr @__gxx_personality_v0 {
  %2 = alloca ptr, align 8
  %3 = alloca ptr, align 8
  %4 = alloca ptr, align 8
  %5 = alloca i32, align 4
  store ptr %0, ptr %2, align 8
  %6 = load ptr, ptr %2, align 8
  call void @llvm.lifetime.start.p0(i64 8, ptr %3) #24
  %7 = call noalias noundef ptr @_Znwm(i64 noundef 48) #26
  invoke void @_ZN15ExportPDUDialogC1EP7QWidget(ptr noundef align 8 dereferenceable_or_null(48) %7, ptr noundef %6)
          to label %8 unwind label %15

8:                                                ; preds = %1
  store ptr %7, ptr %3, align 8
  %9 = load ptr, ptr %3, align 8
  %10 = call noundef zeroext i1 @_ZNK7QWidget11isMinimizedEv(ptr noundef align 8 dereferenceable_or_null(40) %9)
  %11 = zext i1 %10 to i32
  %12 = icmp eq i32 %11, 1
  br i1 %12, label %13, label %19

13:                                               ; preds = %8
  %14 = load ptr, ptr %3, align 8
  call void @_ZN7QWidget10showNormalEv(ptr noundef align 8 dereferenceable_or_null(40) %14)
  br label %21

15:                                               ; preds = %1
  %16 = landingpad { ptr, i32 }
          cleanup
  %17 = extractvalue { ptr, i32 } %16, 0
  store ptr %17, ptr %4, align 8
  %18 = extractvalue { ptr, i32 } %16, 1
  store i32 %18, ptr %5, align 4
  call void @_ZdlPvm(ptr noundef %7, i64 noundef 48) #27
  call void @llvm.lifetime.end.p0(i64 8, ptr %3) #24
  br label %24

19:                                               ; preds = %8
  %20 = load ptr, ptr %3, align 8
  call void @_ZN7QWidget4showEv(ptr noundef align 8 dereferenceable_or_null(40) %20)
  br label %21

21:                                               ; preds = %19, %13
  %22 = load ptr, ptr %3, align 8
  call void @_ZN7QWidget5raiseEv(ptr noundef align 8 dereferenceable_or_null(40) %22)
  %23 = load ptr, ptr %3, align 8
  call void @_ZN7QWidget14activateWindowEv(ptr noundef align 8 dereferenceable_or_null(40) %23)
  call void @llvm.lifetime.end.p0(i64 8, ptr %3) #24
  ret void

24:                                               ; preds = %15
  %25 = load ptr, ptr %4, align 8
  %26 = load i32, ptr %5, align 4
  %27 = insertvalue { ptr, i32 } poison, ptr %25, 0
  %28 = insertvalue { ptr, i32 } %27, i32 %26, 1
  resume { ptr, i32 } %28
}