; Function Attrs: mustprogress null_pointer_is_valid sspstrong uwtable
define void @_ZN19WiresharkMainWindow9exportPDUEv(ptr noundef align 8 dereferenceable_or_null(560) %0) local_unnamed_addr #0 align 2 personality ptr @__gxx_personality_v0 {
  %2 = tail call noalias noundef dereferenceable_or_null(48) ptr @_Znwm(i64 noundef 48) #28
  invoke void @_ZN15ExportPDUDialogC1EP7QWidget(ptr noundef align 8 dereferenceable_or_null(48) %2, ptr noundef %0)
          to label %3 unwind label %6

3:                                                ; preds = %1
  %4 = tail call noundef zeroext i1 @_ZNK7QWidget11isMinimizedEv(ptr noundef align 8 dereferenceable_or_null(40) %2)
  br i1 %4, label %5, label %8

5:                                                ; preds = %3
  tail call void @_ZN7QWidget10showNormalEv(ptr noundef align 8 dereferenceable_or_null(40) %2)
  br label %9

6:                                                ; preds = %1
  %7 = landingpad { ptr, i32 }
          cleanup
  tail call void @_ZdlPvm(ptr noundef %2, i64 noundef 48) #26
  resume { ptr, i32 } %7

8:                                                ; preds = %3
  tail call void @_ZN7QWidget4showEv(ptr noundef align 8 dereferenceable_or_null(40) %2)
  br label %9

9:                                                ; preds = %8, %5
  tail call void @_ZN7QWidget5raiseEv(ptr noundef align 8 dereferenceable_or_null(40) %2)
  tail call void @_ZN7QWidget14activateWindowEv(ptr noundef align 8 dereferenceable_or_null(40) %2)
  ret void
}